target datalayout = "e-m:e-p270:32:32-p271:32:32-p272:64:64-i64:64-i128:128-f80:128-n8:16:32:64-S128"
target triple = "x86_64-pc-linux-gnu"

%struct.LZ4F_CustomMem = type { ptr, ptr, ptr, ptr }
%struct.LZ4F_frameInfo_t = type { i32, i32, i32, i32, i64, i32, i32 }
%struct.XXH32_state_s = type { i32, i32, i32, i32, i32, i32, [4 x i32], i32, i32 }
%struct.LZ4F_dctx_s = type { %struct.LZ4F_CustomMem, %struct.LZ4F_frameInfo_t, i32, i32, i64, i64, i64, ptr, i64, i64, ptr, ptr, i64, ptr, i64, i64, %struct.XXH32_state_s, %struct.XXH32_state_s, i32, [19 x i8] }

; Function Attrs: nounwind uwtable
define internal i32 @LZ4F_readLE32(ptr noundef %0) #0 {
  %2 = alloca ptr, align 8
  %3 = alloca ptr, align 8
  %4 = alloca i32, align 4
  store ptr %0, ptr %2, align 8, !tbaa !12
  call void @llvm.lifetime.start.p0(i64 8, ptr %3) #8
  %5 = load ptr, ptr %2, align 8, !tbaa !12
  store ptr %5, ptr %3, align 8, !tbaa !7
  call void @llvm.lifetime.start.p0(i64 4, ptr %4) #8
  %6 = load ptr, ptr %3, align 8, !tbaa !7
  %7 = getelementptr inbounds i8, ptr %6, i64 0
  %8 = load i8, ptr %7, align 1, !tbaa !16
  %9 = zext i8 %8 to i32
  store i32 %9, ptr %4, align 4, !tbaa !10
  %10 = load ptr, ptr %3, align 8, !tbaa !7
  %11 = getelementptr inbounds i8, ptr %10, i64 1
  %12 = load i8, ptr %11, align 1, !tbaa !16
  %13 = zext i8 %12 to i32
  %14 = shl i32 %13, 8
  %15 = load i32, ptr %4, align 4, !tbaa !10
  %16 = or i32 %15, %14
  store i32 %16, ptr %4, align 4, !tbaa !10
  %17 = load ptr, ptr %3, align 8, !tbaa !7
  %18 = getelementptr inbounds i8, ptr %17, i64 2
  %19 = load i8, ptr %18, align 1, !tbaa !16
  %20 = zext i8 %19 to i32
  %21 = shl i32 %20, 16
  %22 = load i32, ptr %4, align 4, !tbaa !10
  %23 = or i32 %22, %21
  store i32 %23, ptr %4, align 4, !tbaa !10
  %24 = load ptr, ptr %3, align 8, !tbaa !7
  %25 = getelementptr inbounds i8, ptr %24, i64 3
  %26 = load i8, ptr %25, align 1, !tbaa !16
  %27 = zext i8 %26 to i32
  %28 = shl i32 %27, 24
  %29 = load i32, ptr %4, align 4, !tbaa !10
  %30 = or i32 %29, %28
  store i32 %30, ptr %4, align 4, !tbaa !10
  %31 = load i32, ptr %4, align 4, !tbaa !10
  call void @llvm.lifetime.end.p0(i64 4, ptr %4) #8
  call void @llvm.lifetime.end.p0(i64 8, ptr %3) #8
  ret i32 %31
}

; Function Attrs: nounwind uwtable
define i32 @LZ4F_isError(i64 noundef %0) #0 {
  %2 = alloca i64, align 8
  store i64 %0, ptr %2, align 8, !tbaa !3
  %3 = load i64, ptr %2, align 8, !tbaa !3
  %4 = icmp ugt i64 %3, -24
  %5 = zext i1 %4 to i32
  ret i32 %5
}

; Function Attrs: nounwind uwtable
define i64 @LZ4F_headerSize(ptr noundef %0, i64 noundef %1) #0 {
  %3 = alloca i64, align 8
  %4 = alloca ptr, align 8
  %5 = alloca i64, align 8
  %6 = alloca i8, align 1
  %7 = alloca i32, align 4
  %8 = alloca i32, align 4
  store ptr %0, ptr %4, align 8, !tbaa !12
  store i64 %1, ptr %5, align 8, !tbaa !3
  br label %9

9:                                                ; preds = %2
  %10 = load ptr, ptr %4, align 8, !tbaa !12
  %11 = icmp eq ptr %10, null
  br i1 %11, label %12, label %14

12:                                               ; preds = %9
  %13 = call i64 @LZ4F_returnErrorCode(i32 noundef 15)
  store i64 %13, ptr %3, align 8
  br label %53

14:                                               ; preds = %9
  br label %15

15:                                               ; preds = %14
  %16 = load i64, ptr %5, align 8, !tbaa !3
  %17 = icmp ult i64 %16, 5
  br i1 %17, label %18, label %20

18:                                               ; preds = %15
  %19 = call i64 @LZ4F_returnErrorCode(i32 noundef 12)
  store i64 %19, ptr %3, align 8
  br label %53

20:                                               ; preds = %15
  %21 = load ptr, ptr %4, align 8, !tbaa !12
  %22 = call i32 @LZ4F_readLE32(ptr noundef %21)
  %23 = and i32 %22, -16
  %24 = icmp eq i32 %23, 407710288
  br i1 %24, label %25, label %26

25:                                               ; preds = %20
  store i64 8, ptr %3, align 8
  br label %53

26:                                               ; preds = %20
  %27 = load ptr, ptr %4, align 8, !tbaa !12
  %28 = call i32 @LZ4F_readLE32(ptr noundef %27)
  %29 = icmp ne i32 %28, 407708164
  br i1 %29, label %30, label %32

30:                                               ; preds = %26
  %31 = call i64 @LZ4F_returnErrorCode(i32 noundef 13)
  store i64 %31, ptr %3, align 8
  br label %53

32:                                               ; preds = %26
  call void @llvm.lifetime.start.p0(i64 1, ptr %6) #8
  %33 = load ptr, ptr %4, align 8, !tbaa !12
  %34 = getelementptr inbounds i8, ptr %33, i64 4
  %35 = load i8, ptr %34, align 1, !tbaa !16
  store i8 %35, ptr %6, align 1, !tbaa !16
  call void @llvm.lifetime.start.p0(i64 4, ptr %7) #8
  %36 = load i8, ptr %6, align 1, !tbaa !16
  %37 = zext i8 %36 to i32
  %38 = ashr i32 %37, 3
  %39 = and i32 %38, 1
  store i32 %39, ptr %7, align 4, !tbaa !10
  call void @llvm.lifetime.start.p0(i64 4, ptr %8) #8
  %40 = load i8, ptr %6, align 1, !tbaa !16
  %41 = zext i8 %40 to i32
  %42 = and i32 %41, 1
  store i32 %42, ptr %8, align 4, !tbaa !10
  %43 = load i32, ptr %7, align 4, !tbaa !10
  %44 = icmp ne i32 %43, 0
  %45 = select i1 %44, i32 8, i32 0
  %46 = sext i32 %45 to i64
  %47 = add i64 7, %46
  %48 = load i32, ptr %8, align 4, !tbaa !10
  %49 = icmp ne i32 %48, 0
  %50 = select i1 %49, i32 4, i32 0
  %51 = sext i32 %50 to i64
  %52 = add i64 %47, %51
  store i64 %52, ptr %3, align 8
  call void @llvm.lifetime.end.p0(i64 4, ptr %8) #8
  call void @llvm.lifetime.end.p0(i64 4, ptr %7) #8
  call void @llvm.lifetime.end.p0(i64 1, ptr %6) #8
  br label %53

53:                                               ; preds = %32, %30, %25, %18, %12
  %54 = load i64, ptr %3, align 8
  ret i64 %54
}

; Function Attrs: nounwind uwtable
define internal i64 @LZ4F_returnErrorCode(i32 noundef %0) #0 {
  %2 = alloca i32, align 4
  store i32 %0, ptr %2, align 4, !tbaa !10
  %3 = load i32, ptr %2, align 4, !tbaa !10
  %4 = zext i32 %3 to i64
  %5 = sub nsw i64 0, %4
  ret i64 %5
}

; Function Attrs: nounwind uwtable
define i64 @LZ4F_getFrameInfo(ptr noundef %0, ptr noundef %1, ptr noundef %2, ptr noundef %3) #0 {
  %5 = alloca i64, align 8
  %6 = alloca ptr, align 8
  %7 = alloca ptr, align 8
  %8 = alloca ptr, align 8
  %9 = alloca ptr, align 8
  %10 = alloca i64, align 8
  %11 = alloca i64, align 8
  %12 = alloca i64, align 8
  %13 = alloca i32, align 4
  %14 = alloca i64, align 8
  store ptr %0, ptr %6, align 8, !tbaa !75
  store ptr %1, ptr %7, align 8, !tbaa !12
  store ptr %2, ptr %8, align 8, !tbaa !12
  store ptr %3, ptr %9, align 8, !tbaa !88
  %15 = load ptr, ptr %6, align 8, !tbaa !75
  %16 = getelementptr inbounds nuw %struct.LZ4F_dctx_s, ptr %15, i32 0, i32 3
  %17 = load i32, ptr %16, align 4, !tbaa !81
  %18 = icmp ugt i32 %17, 1
  br i1 %18, label %19, label %26

19:                                               ; preds = %4
  call void @llvm.lifetime.start.p0(i64 8, ptr %10) #8
  store i64 0, ptr %10, align 8, !tbaa !3
  call void @llvm.lifetime.start.p0(i64 8, ptr %11) #8
  store i64 0, ptr %11, align 8, !tbaa !3
  %20 = load ptr, ptr %9, align 8, !tbaa !88
  store i64 0, ptr %20, align 8, !tbaa !3
  %21 = load ptr, ptr %7, align 8, !tbaa !12
  %22 = load ptr, ptr %6, align 8, !tbaa !75
  %23 = getelementptr inbounds nuw %struct.LZ4F_dctx_s, ptr %22, i32 0, i32 1
  call void @llvm.memcpy.p0.p0.i64(ptr align 8 %21, ptr align 8 %23, i64 32, i1 false), !tbaa.struct !90
  %24 = load ptr, ptr %6, align 8, !tbaa !75
  %25 = call i64 @LZ4F_decompress(ptr noundef %24, ptr noundef null, ptr noundef %10, ptr noundef null, ptr noundef %11, ptr noundef null)
  store i64 %25, ptr %5, align 8
  call void @llvm.lifetime.end.p0(i64 8, ptr %11) #8
  call void @llvm.lifetime.end.p0(i64 8, ptr %10) #8
  br label %72

26:                                               ; preds = %4
  %27 = load ptr, ptr %6, align 8, !tbaa !75
  %28 = getelementptr inbounds nuw %struct.LZ4F_dctx_s, ptr %27, i32 0, i32 3
  %29 = load i32, ptr %28, align 4, !tbaa !81
  %30 = icmp eq i32 %29, 1
  br i1 %30, label %31, label %34

31:                                               ; preds = %26
  %32 = load ptr, ptr %9, align 8, !tbaa !88
  store i64 0, ptr %32, align 8, !tbaa !3
  %33 = call i64 @LZ4F_returnErrorCode(i32 noundef 19)
  store i64 %33, ptr %5, align 8
  br label %72

34:                                               ; preds = %26
  call void @llvm.lifetime.start.p0(i64 8, ptr %12) #8
  %35 = load ptr, ptr %8, align 8, !tbaa !12
  %36 = load ptr, ptr %9, align 8, !tbaa !88
  %37 = load i64, ptr %36, align 8, !tbaa !3
  %38 = call i64 @LZ4F_headerSize(ptr noundef %35, i64 noundef %37)
  store i64 %38, ptr %12, align 8, !tbaa !3
  %39 = load i64, ptr %12, align 8, !tbaa !3
  %40 = call i32 @LZ4F_isError(i64 noundef %39)
  %41 = icmp ne i32 %40, 0
  br i1 %41, label %42, label %45

42:                                               ; preds = %34
  %43 = load ptr, ptr %9, align 8, !tbaa !88
  store i64 0, ptr %43, align 8, !tbaa !3
  %44 = load i64, ptr %12, align 8, !tbaa !3
  store i64 %44, ptr %5, align 8
  store i32 1, ptr %13, align 4
  br label %71

45:                                               ; preds = %34
  %46 = load ptr, ptr %9, align 8, !tbaa !88
  %47 = load i64, ptr %46, align 8, !tbaa !3
  %48 = load i64, ptr %12, align 8, !tbaa !3
  %49 = icmp ult i64 %47, %48
  br i1 %49, label %50, label %53

50:                                               ; preds = %45
  %51 = load ptr, ptr %9, align 8, !tbaa !88
  store i64 0, ptr %51, align 8, !tbaa !3
  %52 = call i64 @LZ4F_returnErrorCode(i32 noundef 12)
  store i64 %52, ptr %5, align 8
  store i32 1, ptr %13, align 4
  br label %71

53:                                               ; preds = %45
  call void @llvm.lifetime.start.p0(i64 8, ptr %14) #8
  %54 = load ptr, ptr %6, align 8, !tbaa !75
  %55 = load ptr, ptr %8, align 8, !tbaa !12
  %56 = load i64, ptr %12, align 8, !tbaa !3
  %57 = call i64 @LZ4F_decodeHeader(ptr noundef %54, ptr noundef %55, i64 noundef %56)
  store i64 %57, ptr %14, align 8, !tbaa !3
  %58 = load i64, ptr %14, align 8, !tbaa !3
  %59 = call i32 @LZ4F_isError(i64 noundef %58)
  %60 = icmp ne i32 %59, 0
  br i1 %60, label %61, label %63

61:                                               ; preds = %53
  %62 = load ptr, ptr %9, align 8, !tbaa !88
  store i64 0, ptr %62, align 8, !tbaa !3
  br label %66

63:                                               ; preds = %53
  %64 = load i64, ptr %14, align 8, !tbaa !3
  %65 = load ptr, ptr %9, align 8, !tbaa !88
  store i64 %64, ptr %65, align 8, !tbaa !3
  store i64 4, ptr %14, align 8, !tbaa !3
  br label %66

66:                                               ; preds = %63, %61
  %67 = load ptr, ptr %7, align 8, !tbaa !12
  %68 = load ptr, ptr %6, align 8, !tbaa !75
  %69 = getelementptr inbounds nuw %struct.LZ4F_dctx_s, ptr %68, i32 0, i32 1
  call void @llvm.memcpy.p0.p0.i64(ptr align 8 %67, ptr align 8 %69, i64 32, i1 false), !tbaa.struct !90
  %70 = load i64, ptr %14, align 8, !tbaa !3
  store i64 %70, ptr %5, align 8
  store i32 1, ptr %13, align 4
  call void @llvm.lifetime.end.p0(i64 8, ptr %14) #8
  br label %71

71:                                               ; preds = %66, %50, %42
  call void @llvm.lifetime.end.p0(i64 8, ptr %12) #8
  br label %72

72:                                               ; preds = %71, %31, %19
  %73 = load i64, ptr %5, align 8
  ret i64 %73
}