; Function Attrs: nounwind uwtable
define i64 @LZ4F_getFrameInfo(ptr noundef %0, ptr noundef writeonly captures(none) %1, ptr noundef %2, ptr noundef captures(none) %3) local_unnamed_addr #5 {
  %5 = alloca i64, align 8
  %6 = alloca i64, align 8
  %7 = getelementptr inbounds nuw i8, ptr %0, i64 68
  %8 = load i32, ptr %7, align 4, !tbaa !72
  %9 = icmp ugt i32 %8, 1
  br i1 %9, label %10, label %13

10:                                               ; preds = %4
  call void @llvm.lifetime.start.p0(i64 8, ptr nonnull %5) #13
  store i64 0, ptr %5, align 8, !tbaa !8
  call void @llvm.lifetime.start.p0(i64 8, ptr nonnull %6) #13
  store i64 0, ptr %6, align 8, !tbaa !8
  store i64 0, ptr %3, align 8, !tbaa !8
  %11 = getelementptr inbounds nuw i8, ptr %0, i64 32
  tail call void @llvm.memcpy.p0.p0.i64(ptr noundef nonnull align 8 dereferenceable(32) %1, ptr noundef nonnull align 8 dereferenceable(32) %11, i64 32, i1 false), !tbaa.struct !77
  %12 = call i64 @LZ4F_decompress(ptr noundef nonnull %0, ptr noundef null, ptr noundef nonnull %5, ptr noundef null, ptr noundef nonnull %6, ptr noundef null)
  call void @llvm.lifetime.end.p0(i64 8, ptr nonnull %6) #13
  call void @llvm.lifetime.end.p0(i64 8, ptr nonnull %5) #13
  br label %43

13:                                               ; preds = %4
  %14 = icmp eq i32 %8, 1
  br i1 %14, label %15, label %16

15:                                               ; preds = %13
  store i64 0, ptr %3, align 8, !tbaa !8
  br label %43

16:                                               ; preds = %13
  %17 = load i64, ptr %3, align 8, !tbaa !8
  %18 = icmp eq ptr %2, null
  br i1 %18, label %35, label %19

19:                                               ; preds = %16
  %20 = icmp ult i64 %17, 5
  br i1 %20, label %35, label %21

21:                                               ; preds = %19
  %22 = load i32, ptr %2, align 1
  %23 = and i32 %22, -16
  %24 = icmp eq i32 %23, 407710288
  br i1 %24, label %36, label %25

25:                                               ; preds = %21
  %.not.i = icmp eq i32 %22, 407708164
  br i1 %.not.i, label %26, label %35

26:                                               ; preds = %25
  %27 = getelementptr inbounds nuw i8, ptr %2, i64 4
  %28 = load i8, ptr %27, align 1, !tbaa !18
  %29 = zext i8 %28 to i32
  %30 = and i32 %29, 8
  %31 = or disjoint i32 %30, 7
  %32 = shl nuw nsw i32 %29, 2
  %33 = and i32 %32, 4
  %narrow.i = add nuw nsw i32 %31, %33
  %34 = zext nneg i32 %narrow.i to i64
  br label %36

35:                                               ; preds = %16, %19, %25
  %.0.i.ph = phi i64 [ -13, %25 ], [ -12, %19 ], [ -15, %16 ]
  store i64 0, ptr %3, align 8, !tbaa !8
  br label %43

36:                                               ; preds = %26, %21
  %.0.i = phi i64 [ %34, %26 ], [ 8, %21 ]
  %37 = icmp ult i64 %17, %.0.i
  br i1 %37, label %38, label %39

38:                                               ; preds = %36
  store i64 0, ptr %3, align 8, !tbaa !8
  br label %43

39:                                               ; preds = %36
  %40 = tail call fastcc i64 @LZ4F_decodeHeader(ptr noundef nonnull %0, ptr noundef nonnull %2, i64 noundef %.0.i)
  %41 = icmp ult i64 %40, -23
  %. = select i1 %41, i64 %40, i64 0
  %.29 = select i1 %41, i64 4, i64 %40
  store i64 %., ptr %3, align 8, !tbaa !8
  %42 = getelementptr inbounds nuw i8, ptr %0, i64 32
  tail call void @llvm.memcpy.p0.p0.i64(ptr noundef nonnull align 8 dereferenceable(32) %1, ptr noundef nonnull align 8 dereferenceable(32) %42, i64 32, i1 false), !tbaa.struct !77
  br label %43

43:                                               ; preds = %35, %38, %39, %15, %10
  %.025 = phi i64 [ %12, %10 ], [ -19, %15 ], [ %.0.i.ph, %35 ], [ -12, %38 ], [ %.29, %39 ]
  ret i64 %.025
}